target datalayout = "e-m:e-p270:32:32-p271:32:32-p272:64:64-i64:64-i128:128-f80:128-n8:16:32:64-S128"
target triple = "x86_64-pc-linux-gnu"

%struct.b2Vec2 = type { float, float }
%struct.b2JointArray = type { ptr, i32, i32 }
%struct.b2JointSimArray = type { ptr, i32, i32 }
%struct.b2BodyId = type { i32, i16, i16 }
%struct.b2MotorJointDef = type { %struct.b2BodyId, %struct.b2BodyId, %struct.b2Vec2, float, float, float, float, i8, ptr, i32 }
%struct.b2JointId = type { i32, i16, i16 }
%struct.b2World = type { %struct.b2ArenaAllocator, %struct.b2BroadPhase, %struct.b2ConstraintGraph, %struct.b2IdPool, %struct.b2BodyArray, %struct.b2IdPool, %struct.b2SolverSetArray, %struct.b2IdPool, %struct.b2JointArray, %struct.b2IdPool, %struct.b2ContactArray, %struct.b2IdPool, %struct.b2IslandArray, %struct.b2IdPool, %struct.b2IdPool, %struct.b2ShapeArray, %struct.b2ChainShapeArray, %struct.b2SensorArray, %struct.b2TaskContextArray, %struct.b2SensorTaskContextArray, %struct.b2BodyMoveEventArray, %struct.b2SensorBeginTouchEventArray, %struct.b2ContactBeginTouchEventArray, [2 x %struct.b2SensorEndTouchEventArray], [2 x %struct.b2ContactEndTouchEventArray], i32, %struct.b2ContactHitEventArray, %struct.b2BitSet, %struct.b2BitSet, %struct.b2BitSet, i64, i32, %struct.b2Vec2, float, float, float, float, float, float, float, float, ptr, ptr, i16, %struct.b2Profile, ptr, ptr, ptr, ptr, i32, ptr, ptr, ptr, ptr, ptr, float, i32, i32, i16, i8, i8, i8, i8, i8, i8 }
%struct.b2ArenaAllocator = type { ptr, i32, i32, i32, i32, %struct.b2ArenaEntryArray }
%struct.b2ArenaEntryArray = type { ptr, i32, i32 }
%struct.b2BroadPhase = type { [3 x %struct.b2DynamicTree], i32, %struct.b2HashSet, %struct.b2IntArray, ptr, ptr, i32, %struct.b2AtomicInt, %struct.b2HashSet }
%struct.b2DynamicTree = type { ptr, i32, i32, i32, i32, i32, ptr, ptr, ptr, ptr, i32 }
%struct.b2IntArray = type { ptr, i32, i32 }
%struct.b2AtomicInt = type { i32 }
%struct.b2HashSet = type { ptr, i32, i32 }
%struct.b2ConstraintGraph = type { [12 x %struct.b2GraphColor] }
%struct.b2GraphColor = type { %struct.b2BitSet, %struct.b2ContactSimArray, %struct.b2JointSimArray, %union.anon }
%struct.b2ContactSimArray = type { ptr, i32, i32 }
%union.anon = type { ptr }
%struct.b2BodyArray = type { ptr, i32, i32 }
%struct.b2SolverSetArray = type { ptr, i32, i32 }
%struct.b2ContactArray = type { ptr, i32, i32 }
%struct.b2IslandArray = type { ptr, i32, i32 }
%struct.b2IdPool = type { %struct.b2IntArray, i32 }
%struct.b2ShapeArray = type { ptr, i32, i32 }
%struct.b2ChainShapeArray = type { ptr, i32, i32 }
%struct.b2SensorArray = type { ptr, i32, i32 }
%struct.b2TaskContextArray = type { ptr, i32, i32 }
%struct.b2SensorTaskContextArray = type { ptr, i32, i32 }
%struct.b2BodyMoveEventArray = type { ptr, i32, i32 }
%struct.b2SensorBeginTouchEventArray = type { ptr, i32, i32 }
%struct.b2ContactBeginTouchEventArray = type { ptr, i32, i32 }
%struct.b2SensorEndTouchEventArray = type { ptr, i32, i32 }
%struct.b2ContactEndTouchEventArray = type { ptr, i32, i32 }
%struct.b2ContactHitEventArray = type { ptr, i32, i32 }
%struct.b2BitSet = type { ptr, i32, i32 }
%struct.b2Profile = type { float, float, float, float, float, float, float, float, float, float, float, float, float, float, float, float, float, float, float, float, float, float }
%struct.b2Joint = type { ptr, i32, i32, i32, [2 x %struct.b2JointEdge], i32, i32, i32, i32, float, i32, i16, i8, i8 }
%struct.b2JointEdge = type { i32, i32, i32 }
%struct.b2JointSim = type { i32, i32, i32, i32, %struct.b2Vec2, %struct.b2Vec2, float, float, float, float, %union.anon.0 }
%union.anon.0 = type { %struct.b2PrismaticJoint }
%struct.b2PrismaticJoint = type { %struct.b2Vec2, %struct.b2Vec2, float, float, float, float, float, float, float, float, float, float, float, i32, i32, %struct.b2Vec2, %struct.b2Vec2, %struct.b2Vec2, %struct.b2Vec2, float, float, %struct.b2Softness, i8, i8, i8 }
%struct.b2Softness = type { float, float, float }
%struct.b2WorldId = type { i16, i16 }
%struct.b2JointPair = type { ptr, ptr }
%struct.b2Body = type { [32 x i8], ptr, i32, i32, i32, i32, i32, i32, i32, i32, i32, i32, i32, i32, float, float, float, float, i32, i32, i32, i16, i8, i8, i8, i8 }
%struct.b2Contact = type { i32, i32, i32, [2 x %struct.b2ContactEdge], i32, i32, i32, i32, i32, i32, i32, i8 }
%struct.b2ContactEdge = type { i32, i32, i32 }
%struct.b2MotorJoint = type { %struct.b2Vec2, float, %struct.b2Vec2, float, float, float, float, i32, i32, %struct.b2Vec2, %struct.b2Vec2, %struct.b2Vec2, float, %struct.b2Mat22, float }
%struct.b2Mat22 = type { %struct.b2Vec2, %struct.b2Vec2 }

; Function Attrs: inlinehint nounwind uwtable
define internal ptr @b2ContactArray_Get(ptr noundef %0, i32 noundef %1) #5 {
  %3 = alloca ptr, align 8
  %4 = alloca i32, align 4
  store ptr %0, ptr %3, align 8, !tbaa !12
  store i32 %1, ptr %4, align 4, !tbaa !3
  %5 = load ptr, ptr %3, align 8, !tbaa !12
  %6 = getelementptr inbounds nuw %struct.b2ContactArray, ptr %5, i32 0, i32 0
  %7 = load ptr, ptr %6, align 8, !tbaa !305
  %8 = load i32, ptr %4, align 4, !tbaa !3
  %9 = sext i32 %8 to i64
  %10 = getelementptr inbounds %struct.b2Contact, ptr %7, i64 %9
  ret ptr %10
}

; Function Attrs: nounwind uwtable
define internal void @b2DestroyContactsBetweenBodies(ptr noundef %0, ptr noundef %1, ptr noundef %2) #0 {
  %4 = alloca ptr, align 8
  %5 = alloca ptr, align 8
  %6 = alloca ptr, align 8
  %7 = alloca i32, align 4
  %8 = alloca i32, align 4
  %9 = alloca i8, align 1
  %10 = alloca i32, align 4
  %11 = alloca i32, align 4
  %12 = alloca ptr, align 8
  %13 = alloca i32, align 4
  store ptr %0, ptr %4, align 8, !tbaa !60
  store ptr %1, ptr %5, align 8, !tbaa !125
  store ptr %2, ptr %6, align 8, !tbaa !125
  call void @llvm.lifetime.start.p0(i64 4, ptr %7) #9
  call void @llvm.lifetime.start.p0(i64 4, ptr %8) #9
  %14 = load ptr, ptr %5, align 8, !tbaa !125
  %15 = getelementptr inbounds nuw %struct.b2Body, ptr %14, i32 0, i32 5
  %16 = load i32, ptr %15, align 4, !tbaa !180
  %17 = load ptr, ptr %6, align 8, !tbaa !125
  %18 = getelementptr inbounds nuw %struct.b2Body, ptr %17, i32 0, i32 5
  %19 = load i32, ptr %18, align 4, !tbaa !180
  %20 = icmp slt i32 %16, %19
  br i1 %20, label %21, label %28

21:                                               ; preds = %3
  %22 = load ptr, ptr %5, align 8, !tbaa !125
  %23 = getelementptr inbounds nuw %struct.b2Body, ptr %22, i32 0, i32 4
  %24 = load i32, ptr %23, align 8, !tbaa !181
  store i32 %24, ptr %7, align 4, !tbaa !3
  %25 = load ptr, ptr %6, align 8, !tbaa !125
  %26 = getelementptr inbounds nuw %struct.b2Body, ptr %25, i32 0, i32 19
  %27 = load i32, ptr %26, align 4, !tbaa !147
  store i32 %27, ptr %8, align 4, !tbaa !3
  br label %35

28:                                               ; preds = %3
  %29 = load ptr, ptr %6, align 8, !tbaa !125
  %30 = getelementptr inbounds nuw %struct.b2Body, ptr %29, i32 0, i32 4
  %31 = load i32, ptr %30, align 8, !tbaa !181
  store i32 %31, ptr %7, align 4, !tbaa !3
  %32 = load ptr, ptr %5, align 8, !tbaa !125
  %33 = getelementptr inbounds nuw %struct.b2Body, ptr %32, i32 0, i32 19
  %34 = load i32, ptr %33, align 4, !tbaa !147
  store i32 %34, ptr %8, align 4, !tbaa !3
  br label %35

35:                                               ; preds = %28, %21
  call void @llvm.lifetime.start.p0(i64 1, ptr %9) #9
  store i8 0, ptr %9, align 1, !tbaa !133
  br label %36

36:                                               ; preds = %71, %35
  %37 = load i32, ptr %7, align 4, !tbaa !3
  %38 = icmp ne i32 %37, -1
  br i1 %38, label %39, label %72

39:                                               ; preds = %36
  call void @llvm.lifetime.start.p0(i64 4, ptr %10) #9
  %40 = load i32, ptr %7, align 4, !tbaa !3
  %41 = ashr i32 %40, 1
  store i32 %41, ptr %10, align 4, !tbaa !3
  call void @llvm.lifetime.start.p0(i64 4, ptr %11) #9
  %42 = load i32, ptr %7, align 4, !tbaa !3
  %43 = and i32 %42, 1
  store i32 %43, ptr %11, align 4, !tbaa !3
  call void @llvm.lifetime.start.p0(i64 8, ptr %12) #9
  %44 = load ptr, ptr %4, align 8, !tbaa !60
  %45 = getelementptr inbounds nuw %struct.b2World, ptr %44, i32 0, i32 10
  %46 = load i32, ptr %10, align 4, !tbaa !3
  %47 = call ptr @b2ContactArray_Get(ptr noundef %45, i32 noundef %46)
  store ptr %47, ptr %12, align 8, !tbaa !182
  %48 = load ptr, ptr %12, align 8, !tbaa !182
  %49 = getelementptr inbounds nuw %struct.b2Contact, ptr %48, i32 0, i32 3
  %50 = load i32, ptr %11, align 4, !tbaa !3
  %51 = sext i32 %50 to i64
  %52 = getelementptr inbounds [2 x %struct.b2ContactEdge], ptr %49, i64 0, i64 %51
  %53 = getelementptr inbounds nuw %struct.b2ContactEdge, ptr %52, i32 0, i32 2
  %54 = load i32, ptr %53, align 4, !tbaa !183
  store i32 %54, ptr %7, align 4, !tbaa !3
  call void @llvm.lifetime.start.p0(i64 4, ptr %13) #9
  %55 = load i32, ptr %11, align 4, !tbaa !3
  %56 = xor i32 %55, 1
  store i32 %56, ptr %13, align 4, !tbaa !3
  %57 = load ptr, ptr %12, align 8, !tbaa !182
  %58 = getelementptr inbounds nuw %struct.b2Contact, ptr %57, i32 0, i32 3
  %59 = load i32, ptr %13, align 4, !tbaa !3
  %60 = sext i32 %59 to i64
  %61 = getelementptr inbounds [2 x %struct.b2ContactEdge], ptr %58, i64 0, i64 %60
  %62 = getelementptr inbounds nuw %struct.b2ContactEdge, ptr %61, i32 0, i32 0
  %63 = load i32, ptr %62, align 4, !tbaa !185
  %64 = load i32, ptr %8, align 4, !tbaa !3
  %65 = icmp eq i32 %63, %64
  br i1 %65, label %66, label %71

66:                                               ; preds = %39
  %67 = load ptr, ptr %4, align 8, !tbaa !60
  %68 = load ptr, ptr %12, align 8, !tbaa !182
  %69 = load i8, ptr %9, align 1, !tbaa !133, !range !119, !noundef !120
  %70 = trunc i8 %69 to i1
  call void @b2DestroyContact(ptr noundef %67, ptr noundef %68, i1 noundef zeroext %70)
  br label %71

71:                                               ; preds = %66, %39
  call void @llvm.lifetime.end.p0(i64 4, ptr %13) #9
  call void @llvm.lifetime.end.p0(i64 8, ptr %12) #9
  call void @llvm.lifetime.end.p0(i64 4, ptr %11) #9
  call void @llvm.lifetime.end.p0(i64 4, ptr %10) #9
  br label %36, !llvm.loop !186

72:                                               ; preds = %36
  %73 = load ptr, ptr %4, align 8, !tbaa !60
  call void @b2ValidateSolverSets(ptr noundef %73)
  call void @llvm.lifetime.end.p0(i64 1, ptr %9) #9
  call void @llvm.lifetime.end.p0(i64 4, ptr %8) #9
  call void @llvm.lifetime.end.p0(i64 4, ptr %7) #9
  ret void
}

; Function Attrs: inlinehint nounwind uwtable
define internal float @b2ClampFloat(float noundef %0, float noundef %1, float noundef %2) #5 {
  %4 = alloca float, align 4
  %5 = alloca float, align 4
  %6 = alloca float, align 4
  store float %0, ptr %4, align 4, !tbaa !26
  store float %1, ptr %5, align 4, !tbaa !26
  store float %2, ptr %6, align 4, !tbaa !26
  %7 = load float, ptr %4, align 4, !tbaa !26
  %8 = load float, ptr %5, align 4, !tbaa !26
  %9 = fcmp olt float %7, %8
  br i1 %9, label %10, label %12

10:                                               ; preds = %3
  %11 = load float, ptr %5, align 4, !tbaa !26
  br label %22

12:                                               ; preds = %3
  %13 = load float, ptr %4, align 4, !tbaa !26
  %14 = load float, ptr %6, align 4, !tbaa !26
  %15 = fcmp ogt float %13, %14
  br i1 %15, label %16, label %18

16:                                               ; preds = %12
  %17 = load float, ptr %6, align 4, !tbaa !26
  br label %20

18:                                               ; preds = %12
  %19 = load float, ptr %4, align 4, !tbaa !26
  br label %20

20:                                               ; preds = %18, %16
  %21 = phi float [ %17, %16 ], [ %19, %18 ]
  br label %22

22:                                               ; preds = %20, %10
  %23 = phi float [ %11, %10 ], [ %21, %20 ]
  ret float %23
}

; Function Attrs: nounwind uwtable
define i64 @b2CreateMotorJoint(i32 %0, ptr noundef %1) #0 {
  %3 = alloca %struct.b2JointId, align 4
  %4 = alloca %struct.b2WorldId, align 2
  %5 = alloca ptr, align 8
  %6 = alloca ptr, align 8
  %7 = alloca i32, align 4
  %8 = alloca ptr, align 8
  %9 = alloca ptr, align 8
  %10 = alloca %struct.b2JointPair, align 8
  %11 = alloca ptr, align 8
  %12 = alloca %struct.b2Vec2, align 4
  %13 = alloca %struct.b2Vec2, align 4
  %14 = alloca %struct.b2MotorJoint, align 4
  store i32 %0, ptr %4, align 2
  store ptr %1, ptr %5, align 8, !tbaa !188
  call void @llvm.lifetime.start.p0(i64 8, ptr %6) #9
  %15 = load i32, ptr %4, align 2
  %16 = call ptr @b2GetWorldFromId(i32 %15)
  store ptr %16, ptr %6, align 8, !tbaa !60
  %17 = load ptr, ptr %6, align 8, !tbaa !60
  %18 = getelementptr inbounds nuw %struct.b2World, ptr %17, i32 0, i32 60
  %19 = load i8, ptr %18, align 1, !tbaa !76, !range !119, !noundef !120
  %20 = trunc i8 %19 to i1
  br i1 %20, label %21, label %25

21:                                               ; preds = %2
  %22 = getelementptr inbounds nuw %struct.b2JointId, ptr %3, i32 0, i32 0
  store i32 0, ptr %22, align 4, !tbaa !62
  %23 = getelementptr inbounds nuw %struct.b2JointId, ptr %3, i32 0, i32 1
  store i16 0, ptr %23, align 4, !tbaa !75
  %24 = getelementptr inbounds nuw %struct.b2JointId, ptr %3, i32 0, i32 2
  store i16 0, ptr %24, align 2, !tbaa !124
  store i32 1, ptr %7, align 4
  br label %120

25:                                               ; preds = %2
  call void @llvm.lifetime.start.p0(i64 8, ptr %8) #9
  %26 = load ptr, ptr %6, align 8, !tbaa !60
  %27 = load ptr, ptr %5, align 8, !tbaa !188
  %28 = getelementptr inbounds nuw %struct.b2MotorJointDef, ptr %27, i32 0, i32 0
  %29 = load i64, ptr %28, align 8
  %30 = call ptr @b2GetBodyFullId(ptr noundef %26, i64 %29)
  store ptr %30, ptr %8, align 8, !tbaa !125
  call void @llvm.lifetime.start.p0(i64 8, ptr %9) #9
  %31 = load ptr, ptr %6, align 8, !tbaa !60
  %32 = load ptr, ptr %5, align 8, !tbaa !188
  %33 = getelementptr inbounds nuw %struct.b2MotorJointDef, ptr %32, i32 0, i32 1
  %34 = load i64, ptr %33, align 8
  %35 = call ptr @b2GetBodyFullId(ptr noundef %31, i64 %34)
  store ptr %35, ptr %9, align 8, !tbaa !125
  call void @llvm.lifetime.start.p0(i64 16, ptr %10) #9
  %36 = load ptr, ptr %6, align 8, !tbaa !60
  %37 = load ptr, ptr %8, align 8, !tbaa !125
  %38 = load ptr, ptr %9, align 8, !tbaa !125
  %39 = load ptr, ptr %5, align 8, !tbaa !188
  %40 = getelementptr inbounds nuw %struct.b2MotorJointDef, ptr %39, i32 0, i32 8
  %41 = load ptr, ptr %40, align 8, !tbaa !190
  %42 = load ptr, ptr %5, align 8, !tbaa !188
  %43 = getelementptr inbounds nuw %struct.b2MotorJointDef, ptr %42, i32 0, i32 7
  %44 = load i8, ptr %43, align 8, !tbaa !191, !range !119, !noundef !120
  %45 = trunc i8 %44 to i1
  %46 = call { ptr, ptr } @b2CreateJoint(ptr noundef %36, ptr noundef %37, ptr noundef %38, ptr noundef %41, float noundef 1.000000e+00, i32 noundef 1, i1 noundef zeroext %45)
  %47 = getelementptr inbounds nuw { ptr, ptr }, ptr %10, i32 0, i32 0
  %48 = extractvalue { ptr, ptr } %46, 0
  store ptr %48, ptr %47, align 8
  %49 = getelementptr inbounds nuw { ptr, ptr }, ptr %10, i32 0, i32 1
  %50 = extractvalue { ptr, ptr } %46, 1
  store ptr %50, ptr %49, align 8
  call void @llvm.lifetime.start.p0(i64 8, ptr %11) #9
  %51 = getelementptr inbounds nuw %struct.b2JointPair, ptr %10, i32 0, i32 1
  %52 = load ptr, ptr %51, align 8, !tbaa !128
  store ptr %52, ptr %11, align 8, !tbaa !121
  %53 = load ptr, ptr %11, align 8, !tbaa !121
  %54 = getelementptr inbounds nuw %struct.b2JointSim, ptr %53, i32 0, i32 3
  store i32 1, ptr %54, align 4, !tbaa !130
  %55 = load ptr, ptr %11, align 8, !tbaa !121
  %56 = getelementptr inbounds nuw %struct.b2JointSim, ptr %55, i32 0, i32 4
  %57 = getelementptr inbounds nuw %struct.b2Vec2, ptr %12, i32 0, i32 0
  store float 0.000000e+00, ptr %57, align 4, !tbaa !41
  %58 = getelementptr inbounds nuw %struct.b2Vec2, ptr %12, i32 0, i32 1
  store float 0.000000e+00, ptr %58, align 4, !tbaa !42
  call void @llvm.memcpy.p0.p0.i64(ptr align 4 %56, ptr align 4 %12, i64 8, i1 false), !tbaa.struct !43
  %59 = load ptr, ptr %11, align 8, !tbaa !121
  %60 = getelementptr inbounds nuw %struct.b2JointSim, ptr %59, i32 0, i32 5
  %61 = getelementptr inbounds nuw %struct.b2Vec2, ptr %13, i32 0, i32 0
  store float 0.000000e+00, ptr %61, align 4, !tbaa !41
  %62 = getelementptr inbounds nuw %struct.b2Vec2, ptr %13, i32 0, i32 1
  store float 0.000000e+00, ptr %62, align 4, !tbaa !42
  call void @llvm.memcpy.p0.p0.i64(ptr align 4 %60, ptr align 4 %13, i64 8, i1 false), !tbaa.struct !43
  %63 = load ptr, ptr %11, align 8, !tbaa !121
  %64 = getelementptr inbounds nuw %struct.b2JointSim, ptr %63, i32 0, i32 10
  call void @llvm.memset.p0.i64(ptr align 4 %14, i8 0, i64 92, i1 false)
  call void @llvm.memcpy.p0.p0.i64(ptr align 4 %64, ptr align 4 %14, i64 92, i1 false), !tbaa.struct !192
  %65 = load ptr, ptr %11, align 8, !tbaa !121
  %66 = getelementptr inbounds nuw %struct.b2JointSim, ptr %65, i32 0, i32 10
  %67 = getelementptr inbounds nuw %struct.b2MotorJoint, ptr %66, i32 0, i32 0
  %68 = load ptr, ptr %5, align 8, !tbaa !188
  %69 = getelementptr inbounds nuw %struct.b2MotorJointDef, ptr %68, i32 0, i32 2
  call void @llvm.memcpy.p0.p0.i64(ptr align 4 %67, ptr align 8 %69, i64 8, i1 false), !tbaa.struct !43
  %70 = load ptr, ptr %5, align 8, !tbaa !188
  %71 = getelementptr inbounds nuw %struct.b2MotorJointDef, ptr %70, i32 0, i32 3
  %72 = load float, ptr %71, align 8, !tbaa !193
  %73 = load ptr, ptr %11, align 8, !tbaa !121
  %74 = getelementptr inbounds nuw %struct.b2JointSim, ptr %73, i32 0, i32 10
  %75 = getelementptr inbounds nuw %struct.b2MotorJoint, ptr %74, i32 0, i32 1
  store float %72, ptr %75, align 4, !tbaa !134
  %76 = load ptr, ptr %5, align 8, !tbaa !188
  %77 = getelementptr inbounds nuw %struct.b2MotorJointDef, ptr %76, i32 0, i32 4
  %78 = load float, ptr %77, align 4, !tbaa !29
  %79 = load ptr, ptr %11, align 8, !tbaa !121
  %80 = getelementptr inbounds nuw %struct.b2JointSim, ptr %79, i32 0, i32 10
  %81 = getelementptr inbounds nuw %struct.b2MotorJoint, ptr %80, i32 0, i32 4
  store float %78, ptr %81, align 4, !tbaa !134
  %82 = load ptr, ptr %5, align 8, !tbaa !188
  %83 = getelementptr inbounds nuw %struct.b2MotorJointDef, ptr %82, i32 0, i32 5
  %84 = load float, ptr %83, align 8, !tbaa !31
  %85 = load ptr, ptr %11, align 8, !tbaa !121
  %86 = getelementptr inbounds nuw %struct.b2JointSim, ptr %85, i32 0, i32 10
  %87 = getelementptr inbounds nuw %struct.b2MotorJoint, ptr %86, i32 0, i32 5
  store float %84, ptr %87, align 4, !tbaa !134
  %88 = load ptr, ptr %5, align 8, !tbaa !188
  %89 = getelementptr inbounds nuw %struct.b2MotorJointDef, ptr %88, i32 0, i32 6
  %90 = load float, ptr %89, align 4, !tbaa !32
  %91 = call float @b2ClampFloat(float noundef %90, float noundef 0.000000e+00, float noundef 1.000000e+00)
  %92 = load ptr, ptr %11, align 8, !tbaa !121
  %93 = getelementptr inbounds nuw %struct.b2JointSim, ptr %92, i32 0, i32 10
  %94 = getelementptr inbounds nuw %struct.b2MotorJoint, ptr %93, i32 0, i32 6
  store float %91, ptr %94, align 4, !tbaa !134
  %95 = load ptr, ptr %5, align 8, !tbaa !188
  %96 = getelementptr inbounds nuw %struct.b2MotorJointDef, ptr %95, i32 0, i32 7
  %97 = load i8, ptr %96, align 8, !tbaa !191, !range !119, !noundef !120
  %98 = trunc i8 %97 to i1
  %99 = zext i1 %98 to i32
  %100 = icmp eq i32 %99, 0
  br i1 %100, label %101, label %105

101:                                              ; preds = %25
  %102 = load ptr, ptr %6, align 8, !tbaa !60
  %103 = load ptr, ptr %8, align 8, !tbaa !125
  %104 = load ptr, ptr %9, align 8, !tbaa !125
  call void @b2DestroyContactsBetweenBodies(ptr noundef %102, ptr noundef %103, ptr noundef %104)
  br label %105

105:                                              ; preds = %101, %25
  %106 = getelementptr inbounds nuw %struct.b2JointId, ptr %3, i32 0, i32 0
  %107 = load ptr, ptr %11, align 8, !tbaa !121
  %108 = getelementptr inbounds nuw %struct.b2JointSim, ptr %107, i32 0, i32 0
  %109 = load i32, ptr %108, align 4, !tbaa !143
  %110 = add nsw i32 %109, 1
  store i32 %110, ptr %106, align 4, !tbaa !62
  %111 = getelementptr inbounds nuw %struct.b2JointId, ptr %3, i32 0, i32 1
  %112 = load ptr, ptr %6, align 8, !tbaa !60
  %113 = getelementptr inbounds nuw %struct.b2World, ptr %112, i32 0, i32 58
  %114 = load i16, ptr %113, align 4, !tbaa !144
  store i16 %114, ptr %111, align 4, !tbaa !75
  %115 = getelementptr inbounds nuw %struct.b2JointId, ptr %3, i32 0, i32 2
  %116 = getelementptr inbounds nuw %struct.b2JointPair, ptr %10, i32 0, i32 0
  %117 = load ptr, ptr %116, align 8, !tbaa !145
  %118 = getelementptr inbounds nuw %struct.b2Joint, ptr %117, i32 0, i32 11
  %119 = load i16, ptr %118, align 4, !tbaa !146
  store i16 %119, ptr %115, align 2, !tbaa !124
  store i32 1, ptr %7, align 4
  call void @llvm.lifetime.end.p0(i64 8, ptr %11) #9
  call void @llvm.lifetime.end.p0(i64 16, ptr %10) #9
  call void @llvm.lifetime.end.p0(i64 8, ptr %9) #9
  call void @llvm.lifetime.end.p0(i64 8, ptr %8) #9
  br label %120

120:                                              ; preds = %105, %21
  call void @llvm.lifetime.end.p0(i64 8, ptr %6) #9
  %121 = load i64, ptr %3, align 4
  ret i64 %121
}