; Function Attrs: nounwind uwtable
define i64 @b2CreateMotorJoint(i32 %0, ptr noundef readonly captures(none) %1) local_unnamed_addr #0 {
  %3 = tail call ptr @b2GetWorldFromId(i32 %0) #10
  %4 = getelementptr inbounds nuw i8, ptr %3, i64 1783
  %5 = load i8, ptr %4, align 1, !tbaa !60, !range !103, !noundef !104
  %6 = trunc nuw i8 %5 to i1
  br i1 %6, label %82, label %7

7:                                                ; preds = %2
  %8 = load i64, ptr %1, align 8
  %9 = tail call ptr @b2GetBodyFullId(ptr noundef nonnull %3, i64 %8) #10
  %10 = getelementptr inbounds nuw i8, ptr %1, i64 8
  %11 = load i64, ptr %10, align 8
  %12 = tail call ptr @b2GetBodyFullId(ptr noundef nonnull %3, i64 %11) #10
  %13 = getelementptr inbounds nuw i8, ptr %1, i64 48
  %14 = load ptr, ptr %13, align 8, !tbaa !162
  %15 = getelementptr inbounds nuw i8, ptr %1, i64 40
  %16 = load i8, ptr %15, align 8, !tbaa !163, !range !103, !noundef !104
  %17 = trunc nuw i8 %16 to i1
  %18 = tail call fastcc { ptr, ptr } @b2CreateJoint(ptr noundef nonnull %3, ptr noundef %9, ptr noundef %12, ptr noundef %14, float noundef 1.000000e+00, i32 noundef 1, i1 noundef zeroext %17)
  %19 = extractvalue { ptr, ptr } %18, 0
  %20 = extractvalue { ptr, ptr } %18, 1
  %21 = getelementptr inbounds nuw i8, ptr %20, i64 12
  store i32 1, ptr %21, align 4, !tbaa !107
  %22 = getelementptr inbounds nuw i8, ptr %20, i64 16
  %23 = getelementptr inbounds nuw i8, ptr %20, i64 48
  tail call void @llvm.memset.p0.i64(ptr noundef nonnull align 4 dereferenceable(16) %22, i8 0, i64 16, i1 false)
  tail call void @llvm.memset.p0.i64(ptr noundef nonnull align 4 dereferenceable(92) %23, i8 0, i64 92, i1 false)
  %24 = getelementptr inbounds nuw i8, ptr %1, i64 16
  %25 = load i64, ptr %24, align 8
  store i64 %25, ptr %23, align 4
  %26 = getelementptr inbounds nuw i8, ptr %1, i64 24
  %27 = load float, ptr %26, align 8, !tbaa !164
  %28 = getelementptr inbounds nuw i8, ptr %20, i64 56
  store float %27, ptr %28, align 4, !tbaa !109
  %29 = getelementptr inbounds nuw i8, ptr %1, i64 28
  %30 = load float, ptr %29, align 4, !tbaa !25
  %31 = getelementptr inbounds nuw i8, ptr %20, i64 72
  store float %30, ptr %31, align 4, !tbaa !109
  %32 = getelementptr inbounds nuw i8, ptr %1, i64 32
  %33 = load float, ptr %32, align 8, !tbaa !27
  %34 = getelementptr inbounds nuw i8, ptr %20, i64 76
  store float %33, ptr %34, align 4, !tbaa !109
  %35 = getelementptr inbounds nuw i8, ptr %1, i64 36
  %36 = load float, ptr %35, align 4, !tbaa !28
  %37 = fcmp olt float %36, 0.000000e+00
  %38 = fcmp ogt float %36, 1.000000e+00
  %39 = select i1 %38, float 1.000000e+00, float %36
  %40 = select i1 %37, float 0.000000e+00, float %39
  %41 = getelementptr inbounds nuw i8, ptr %20, i64 80
  store float %40, ptr %41, align 4, !tbaa !109
  %42 = load i8, ptr %15, align 8, !tbaa !163, !range !103, !noundef !104
  %43 = icmp eq i8 %42, 0
  br i1 %43, label %44, label %68

44:                                               ; preds = %7
  %45 = getelementptr inbounds nuw i8, ptr %9, i64 52
  %46 = load i32, ptr %45, align 4, !tbaa !118
  %47 = getelementptr inbounds nuw i8, ptr %12, i64 52
  %48 = load i32, ptr %47, align 4, !tbaa !118
  %49 = icmp slt i32 %46, %48
  %..i = select i1 %49, ptr %12, ptr %9
  %.23.i = select i1 %49, ptr %9, ptr %12
  %.0.in.i = getelementptr inbounds nuw i8, ptr %.23.i, i64 48
  %.0.i = load i32, ptr %.0.in.i, align 8, !tbaa !120
  %.020.in.i = getelementptr inbounds nuw i8, ptr %..i, i64 108
  %.020.i = load i32, ptr %.020.in.i, align 4, !tbaa !121
  %.not24.i = icmp eq i32 %.0.i, -1
  br i1 %.not24.i, label %b2DestroyContactsBetweenBodies.exit, label %.lr.ph.i

.lr.ph.i:                                         ; preds = %44
  %50 = getelementptr inbounds nuw i8, ptr %3, i64 1152
  br label %51

51:                                               ; preds = %67, %.lr.ph.i
  %.125.i = phi i32 [ %.0.i, %.lr.ph.i ], [ %60, %67 ]
  %52 = ashr i32 %.125.i, 1
  %53 = and i32 %.125.i, 1
  %.val.i = load ptr, ptr %50, align 8, !tbaa !122
  %54 = sext i32 %52 to i64
  %55 = getelementptr inbounds %struct.b2Contact, ptr %.val.i, i64 %54
  %56 = getelementptr inbounds nuw i8, ptr %55, i64 12
  %narrow.i = mul nuw nsw i32 %53, 12
  %57 = zext nneg i32 %narrow.i to i64
  %58 = getelementptr inbounds nuw i8, ptr %56, i64 %57
  %59 = getelementptr inbounds nuw i8, ptr %58, i64 8
  %60 = load i32, ptr %59, align 4, !tbaa !123
  %61 = xor i32 %53, 1
  %62 = zext nneg i32 %61 to i64
  %63 = getelementptr inbounds nuw [2 x %struct.b2ContactEdge], ptr %56, i64 0, i64 %62
  %64 = load i32, ptr %63, align 4, !tbaa !125
  %65 = icmp eq i32 %64, %.020.i
  br i1 %65, label %66, label %67

66:                                               ; preds = %51
  tail call void @b2DestroyContact(ptr noundef nonnull %3, ptr noundef nonnull %55, i1 noundef zeroext false) #10
  br label %67

67:                                               ; preds = %66, %51
  %.not.i = icmp eq i32 %60, -1
  br i1 %.not.i, label %b2DestroyContactsBetweenBodies.exit, label %51, !llvm.loop !126

b2DestroyContactsBetweenBodies.exit:              ; preds = %67, %44
  tail call void @b2ValidateSolverSets(ptr noundef nonnull %3) #10
  br label %68

68:                                               ; preds = %b2DestroyContactsBetweenBodies.exit, %7
  %69 = load i32, ptr %20, align 4, !tbaa !128
  %70 = add nsw i32 %69, 1
  %71 = getelementptr inbounds nuw i8, ptr %3, i64 1780
  %72 = load i16, ptr %71, align 4, !tbaa !129
  %73 = getelementptr inbounds nuw i8, ptr %19, i64 68
  %74 = load i16, ptr %73, align 4, !tbaa !130
  %75 = zext i16 %74 to i64
  %76 = shl nuw i64 %75, 48
  %77 = zext i16 %72 to i64
  %78 = shl nuw nsw i64 %77, 32
  %79 = zext i32 %70 to i64
  %80 = or disjoint i64 %78, %79
  %81 = or disjoint i64 %80, %76
  br label %82

82:                                               ; preds = %2, %68
  %.sroa.034.0.insert.insert = phi i64 [ %81, %68 ], [ 0, %2 ]
  ret i64 %.sroa.034.0.insert.insert
}